	.file	"Addition.c"
	.section	.rodata
.LC0:
	.string	"Enter two numbers : "
.LC1:
	.string	"%d%d"
.LC2:
	.string	"Answer is : %d"
	.text
	.globl	main
	.type	main, @function
main:
.LFB2:
	.cfi_startproc
	leal	4(%esp), %ecx
	.cfi_def_cfa 1, 0
	andl	$-16, %esp
	pushl	-4(%ecx)
	pushl	%ebp
	.cfi_escape 0x10,0x5,0x2,0x75,0
	movl	%esp, %ebp
	pushl	%ecx
	.cfi_escape 0xf,0x3,0x75,0x7c,0x6
	subl	$20, %esp
	movl	%gs:20, %eax
	movl	%eax, -12(%ebp)
	xorl	%eax, %eax
	subl	$12, %esp
	pushl	$.LC0
	call	printf
	addl	$16, %esp
	subl	$4, %esp
	leal	-20(%ebp), %eax
	pushl	%eax
	leal	-24(%ebp), %eax
	pushl	%eax
	pushl	$.LC1
	call	__isoc99_scanf
	addl	$16, %esp
	movl	-20(%ebp), %edx
	movl	-24(%ebp), %eax
	subl	$8, %esp
	pushl	%edx
	pushl	%eax
	call	addition
	addl	$16, %esp
	movl	%eax, -16(%ebp)
	subl	$8, %esp
	pushl	-16(%ebp)
	pushl	$.LC2
	call	printf
	addl	$16, %esp
	subl	$12, %esp
	pushl	$0
	call	exit
	.cfi_endproc
.LFE2:
	.size	main, .-main
	.globl	addition
	.type	addition, @function
addition:
.LFB3:
	.cfi_startproc
	pushl	%ebp
	.cfi_def_cfa_offset 8
	.cfi_offset 5, -8
	movl	%esp, %ebp
	.cfi_def_cfa_register 5
	subl	$16, %esp
	movl	8(%ebp), %edx
	movl	12(%ebp), %eax
	addl	%edx, %eax
	movl	%eax, -4(%ebp)
	movl	-4(%ebp), %eax
	leave
	.cfi_restore 5
	.cfi_def_cfa 4, 4
	ret
	.cfi_endproc
.LFE3:
	.size	addition, .-addition
	.ident	"GCC: (Ubuntu 5.4.0-6ubuntu1~16.04.11) 5.4.0 20160609"
	.section	.note.GNU-stack,"",@progbits
